target datalayout = "e-m:e-p270:32:32-p271:32:32-p272:64:64-i64:64-i128:128-f80:128-n8:16:32:64-S128"
target triple = "x86_64-pc-linux-gnu"

%struct.AVChannelLayout = type { i32, i32, %union.anon, ptr }
%union.anon = type { i64 }
%struct.AVCodecContext = type { ptr, i32, i32, ptr, i32, i32, ptr, ptr, ptr, i64, i32, i32, ptr, i32, %struct.AVRational, %struct.AVRational, %struct.AVRational, i32, i32, i32, i32, i32, %struct.AVRational, i32, i32, i32, i32, i32, i32, i32, i32, i32, i32, i32, ptr, ptr, i32, float, float, float, float, float, float, float, float, float, i32, i32, i32, i32, i32, i32, i32, i32, i32, i32, i32, i32, ptr, ptr, ptr, i32, i32, i32, i32, i32, i32, i32, i32, i32, i32, %struct.AVChannelLayout, i32, i32, i32, i32, i32, i32, i32, i32, ptr, i32, i32, i32, float, float, i32, i32, i32, i32, i32, ptr, i64, i64, float, float, i32, i32, ptr, ptr, i32, i32, i32, i32, i32, ptr, ptr, ptr, ptr, i32, i32, [8 x i64], i32, i32, i32, i32, i32, i32, i32, ptr, ptr, i32, i32, i32, i32, i32, i32, i32, i32, i32, i32, ptr, ptr, i32, i32, ptr, ptr, ptr, ptr, i32, i32, i64, i32, i32, i64, ptr, i64, ptr, i32, ptr, i32 }
%struct.AVRational = type { i32, i32 }
%struct.AC3EncodeContext = type { ptr, %struct.AC3EncOptions, ptr, %struct.AudioDSPContext, ptr, %struct.MECmpContext, %struct.AC3DSPContext, ptr, ptr, [6 x %struct.AC3Block], i32, i32, i32, i32, i32, i32, i32, i32, i32, i32, i32, [2 x i16], i64, i64, i32, i32, i32, i32, i32, i32, i32, ptr, i32, i32, i32, i32, i32, i32, i32, i32, [7 x i32], i32, i32, i32, i32, i32, [18 x i8], i32, i32, i32, i32, i32, i32, %struct.AC3BitAllocParameters, i32, [7 x i32], [7 x i32], i32, i32, i32, [6 x ptr], ptr, ptr, ptr, ptr, ptr, ptr, ptr, ptr, ptr, ptr, ptr, [7 x [6 x i8]], [7 x i8], i32, [7 x [6 x i8]], [7 x [6 x ptr]], i32, ptr, ptr, %union.anon.1, %union.anon.2 }
%struct.AC3EncOptions = type { i32, i32, float, float, i32, i32, i32, i32, i32, i32, i32, i32, float, float, float, float, i32, i32, i32, i32, i32, i32, i32, i32, i32, i32 }
%struct.AudioDSPContext = type { ptr, ptr, ptr }
%struct.MECmpContext = type { ptr, [6 x ptr], [6 x ptr], [6 x ptr], [6 x ptr], [6 x ptr], [6 x ptr], [6 x ptr], [6 x ptr], [6 x ptr], [6 x ptr], [6 x ptr], [6 x ptr], [6 x ptr], [6 x ptr], [2 x [4 x ptr]], [6 x ptr] }
%struct.AC3DSPContext = type { ptr, ptr, ptr, ptr, ptr, ptr, ptr, ptr, i32, i32, ptr, ptr }
%struct.AC3Block = type { [7 x ptr], [7 x ptr], [7 x ptr], [7 x ptr], [7 x ptr], [7 x ptr], [7 x ptr], [7 x ptr], [7 x ptr], [7 x ptr], i8, i32, [4 x i8], i32, i32, [7 x i8], i32, [7 x i8], [7 x i8], i32, i32, [7 x i32] }
%struct.AC3BitAllocParameters = type { i32, i32, i32, i32, i32, i32, i32, i32, i32 }
%union.anon.1 = type { [256 x float] }
%union.anon.2 = type { [512 x float] }

; Function Attrs: cold nounwind optsize uwtable
define internal i32 @ac3_fixed_mdct_init(ptr noundef %0, ptr noundef %1) #0 {
  %3 = alloca i32, align 4
  %4 = alloca ptr, align 8
  %5 = alloca ptr, align 8
  %6 = alloca [256 x float], align 16
  %7 = alloca float, align 4
  %8 = alloca ptr, align 8
  %9 = alloca i32, align 4
  %10 = alloca i32, align 4
  store ptr %0, ptr %4, align 8, !tbaa !4
  store ptr %1, ptr %5, align 8, !tbaa !29
  call void @llvm.lifetime.start.p0(i64 1024, ptr %6) #9
  call void @llvm.lifetime.start.p0(i64 4, ptr %7) #9
  store float -1.000000e+00, ptr %7, align 4, !tbaa !46
  call void @llvm.lifetime.start.p0(i64 8, ptr %8) #9
  %11 = load ptr, ptr %5, align 8, !tbaa !29
  %12 = getelementptr inbounds nuw %struct.AC3EncodeContext, ptr %11, i32 0, i32 80
  %13 = getelementptr inbounds [256 x i32], ptr %12, i64 0, i64 0
  store ptr %13, ptr %8, align 8, !tbaa !47
  %14 = getelementptr inbounds [256 x float], ptr %6, i64 0, i64 0
  call void @ff_kbd_window_init(ptr noundef %14, float noundef 5.000000e+00, i32 noundef 256)
  call void @llvm.lifetime.start.p0(i64 4, ptr %9) #9
  store i32 0, ptr %9, align 4, !tbaa !41
  br label %15

15:                                               ; preds = %31, %2
  %16 = load i32, ptr %9, align 4, !tbaa !41
  %17 = icmp slt i32 %16, 256
  br i1 %17, label %19, label %18

18:                                               ; preds = %15
  call void @llvm.lifetime.end.p0(i64 4, ptr %9) #9
  br label %34

19:                                               ; preds = %15
  %20 = load i32, ptr %9, align 4, !tbaa !41
  %21 = sext i32 %20 to i64
  %22 = getelementptr inbounds [256 x float], ptr %6, i64 0, i64 %21
  %23 = load float, ptr %22, align 4, !tbaa !46
  %24 = fmul nsz float %23, 0x4150000000000000
  %25 = call i64 @llvm.lrint.i64.f32(float %24)
  %26 = trunc i64 %25 to i32
  %27 = load ptr, ptr %8, align 8, !tbaa !47
  %28 = load i32, ptr %9, align 4, !tbaa !41
  %29 = sext i32 %28 to i64
  %30 = getelementptr inbounds i32, ptr %27, i64 %29
  store i32 %26, ptr %30, align 4, !tbaa !41
  br label %31

31:                                               ; preds = %19
  %32 = load i32, ptr %9, align 4, !tbaa !41
  %33 = add nsw i32 %32, 1
  store i32 %33, ptr %9, align 4, !tbaa !41
  br label %15, !llvm.loop !48

34:                                               ; preds = %18
  %35 = load ptr, ptr %4, align 8, !tbaa !4
  %36 = getelementptr inbounds nuw %struct.AVCodecContext, ptr %35, i32 0, i32 10
  %37 = load i32, ptr %36, align 8, !tbaa !50
  %38 = and i32 %37, 8388608
  %39 = call ptr @avpriv_alloc_fixed_dsp(i32 noundef %38)
  %40 = load ptr, ptr %5, align 8, !tbaa !29
  %41 = getelementptr inbounds nuw %struct.AC3EncodeContext, ptr %40, i32 0, i32 4
  store ptr %39, ptr %41, align 16, !tbaa !51
  %42 = load ptr, ptr %5, align 8, !tbaa !29
  %43 = getelementptr inbounds nuw %struct.AC3EncodeContext, ptr %42, i32 0, i32 4
  %44 = load ptr, ptr %43, align 16, !tbaa !51
  %45 = icmp ne ptr %44, null
  br i1 %45, label %47, label %46

46:                                               ; preds = %34
  store i32 -12, ptr %3, align 4
  store i32 1, ptr %10, align 4
  br label %53

47:                                               ; preds = %34
  %48 = load ptr, ptr %5, align 8, !tbaa !29
  %49 = getelementptr inbounds nuw %struct.AC3EncodeContext, ptr %48, i32 0, i32 7
  %50 = load ptr, ptr %5, align 8, !tbaa !29
  %51 = getelementptr inbounds nuw %struct.AC3EncodeContext, ptr %50, i32 0, i32 8
  %52 = call i32 @av_tx_init(ptr noundef %49, ptr noundef %51, i32 noundef 5, i32 noundef 0, i32 noundef 256, ptr noundef %7, i64 noundef 0)
  store i32 %52, ptr %3, align 4
  store i32 1, ptr %10, align 4
  br label %53

53:                                               ; preds = %47, %46
  call void @llvm.lifetime.end.p0(i64 8, ptr %8) #9
  call void @llvm.lifetime.end.p0(i64 4, ptr %7) #9
  call void @llvm.lifetime.end.p0(i64 1024, ptr %6) #9
  %54 = load i32, ptr %3, align 4
  ret i32 %54
}