; Function Attrs: cold nounwind optsize uwtable
define internal fastcc i32 @ac3_fixed_mdct_init(ptr noundef readonly captures(none) %0, ptr noundef %1) unnamed_addr #0 {
  %3 = alloca [256 x float], align 16
  %4 = alloca float, align 4
  call void @llvm.lifetime.start.p0(i64 1024, ptr nonnull %3) #9
  call void @llvm.lifetime.start.p0(i64 4, ptr nonnull %4) #9
  store float -1.000000e+00, ptr %4, align 4, !tbaa !95
  %5 = getelementptr inbounds nuw i8, ptr %1, i64 5872
  call void @ff_kbd_window_init(ptr noundef nonnull %3, float noundef 5.000000e+00, i32 noundef 256) #9
  br label %12

6:                                                ; preds = %12
  %7 = getelementptr inbounds nuw i8, ptr %0, i64 64
  %8 = load i32, ptr %7, align 8, !tbaa !96
  %9 = and i32 %8, 8388608
  %10 = call ptr @avpriv_alloc_fixed_dsp(i32 noundef %9) #9
  %11 = getelementptr inbounds nuw i8, ptr %1, i64 144
  store ptr %10, ptr %11, align 16, !tbaa !42
  %.not = icmp eq ptr %10, null
  br i1 %.not, label %23, label %19

12:                                               ; preds = %2, %12
  %indvars.iv = phi i64 [ 0, %2 ], [ %indvars.iv.next, %12 ]
  %13 = getelementptr inbounds nuw [256 x float], ptr %3, i64 0, i64 %indvars.iv
  %14 = load float, ptr %13, align 4, !tbaa !95
  %15 = fmul nsz float %14, 0x4150000000000000
  %16 = call i64 @llvm.lrint.i64.f32(float %15)
  %17 = trunc i64 %16 to i32
  %18 = getelementptr inbounds nuw i32, ptr %5, i64 %indvars.iv
  store i32 %17, ptr %18, align 4, !tbaa !56
  %indvars.iv.next = add nuw nsw i64 %indvars.iv, 1
  %exitcond.not = icmp eq i64 %indvars.iv.next, 256
  br i1 %exitcond.not, label %6, label %12, !llvm.loop !97

19:                                               ; preds = %6
  %20 = getelementptr inbounds nuw i8, ptr %1, i64 1032
  %21 = getelementptr inbounds nuw i8, ptr %1, i64 1040
  %22 = call i32 @av_tx_init(ptr noundef nonnull %20, ptr noundef nonnull %21, i32 noundef 5, i32 noundef 0, i32 noundef 256, ptr noundef nonnull %4, i64 noundef 0) #9
  br label %23

23:                                               ; preds = %6, %19
  %.011 = phi i32 [ %22, %19 ], [ -12, %6 ]
  call void @llvm.lifetime.end.p0(i64 4, ptr nonnull %4) #9
  call void @llvm.lifetime.end.p0(i64 1024, ptr nonnull %3) #9
  ret i32 %.011
}